Certificate:
    Data:
        Version: 3 (0x2)
        Serial Number: 1 (0x1)
        Signature Algorithm: ecdsa-with-SHA256
        Issuer: CN=rootca.aisino.com
        Validity
            Not Before: Sep 11 09:01:25 2020 GMT
            Not After : Sep  6 09:01:25 2040 GMT
        Subject: CN=rootca.aisino.com
        Subject Public Key Info:
            Public Key Algorithm: id-ecPublicKey
                Public-Key: (256 bit)
                pub:
                    04:f0:67:f3:83:23:46:ae:91:1e:41:c2:fb:78:05:
                    bb:95:ac:0e:d7:01:6d:81:85:42:11:04:b0:9b:b2:
                    8a:bc:1d:2f:e8:86:80:7f:80:3d:dc:6b:18:53:76:
                    e3:40:cf:6b:be:05:58:1a:b6:d2:52:7e:cd:40:55:
                    9d:ac:57:e9:81
                ASN1 OID: prime256v1
                NIST CURVE: P-256
        X509v3 extensions:
            X509v3 Subject Key Identifier: 
                D1:81:9A:8E:29:49:76:C7:85:DE:6D:E4:BC:FA:38:2D:88:D9:5D:6B
            X509v3 Authority Key Identifier: 
                keyid:D1:81:9A:8E:29:49:76:C7:85:DE:6D:E4:BC:FA:38:2D:88:D9:5D:6B

            X509v3 Basic Constraints: 
                CA:TRUE
    Signature Algorithm: ecdsa-with-SHA256
         30:46:02:21:00:88:55:48:ff:b2:fa:58:7a:ae:67:5a:f8:92:
         08:25:50:f7:78:40:0f:5a:76:9b:d2:0f:74:44:f3:4e:b9:1c:
         8f:02:21:00:b9:69:75:6d:1b:28:b6:42:f9:09:88:c5:66:df:
         b7:b3:cc:76:d8:30:b3:72:d2:27:d0:27:af:4a:1d:84:bb:32
-----BEGIN CERTIFICATE-----
MIIBeDCCAR2gAwIBAgIBATAKBggqhkjOPQQDAjAcMRowGAYDVQQDDBFyb290Y2Eu
YWlzaW5vLmNvbTAeFw0yMDA5MTEwOTAxMjVaFw00MDA5MDYwOTAxMjVaMBwxGjAY
BgNVBAMMEXJvb3RjYS5haXNpbm8uY29tMFkwEwYHKoZIzj0CAQYIKoZIzj0DAQcD
QgAE8GfzgyNGrpEeQcL7eAW7lawO1wFtgYVCEQSwm7KKvB0v6IaAf4A93GsYU3bj
QM9rvgVYGrbSUn7NQFWdrFfpgaNQME4wHQYDVR0OBBYEFNGBmo4pSXbHhd5t5Lz6
OC2I2V1rMB8GA1UdIwQYMBaAFNGBmo4pSXbHhd5t5Lz6OC2I2V1rMAwGA1UdEwQF
MAMBAf8wCgYIKoZIzj0EAwIDSQAwRgIhAIhVSP+y+lh6rmda+JIIJVD3eEAPWnab
0g90RPNOuRyPAiEAuWl1bRsotkL5CYjFZt+3s8x22DCzctIn0CevSh2EuzI=
-----END CERTIFICATE-----
