Certificate:
    Data:
        Version: 3 (0x2)
        Serial Number: 3 (0x3)
        Signature Algorithm: ecdsa-with-SHA256
        Issuer: CN=rootca.aisino.com
        Validity
            Not Before: Sep 11 09:01:35 2020 GMT
            Not After : Sep  9 09:01:35 2030 GMT
        Subject: CN=agent21.com
        Subject Public Key Info:
            Public Key Algorithm: id-ecPublicKey
                Public-Key: (256 bit)
                pub:
                    04:75:60:66:23:be:da:40:60:dc:8d:83:8e:02:a7:
                    96:7a:74:3e:84:e9:c1:04:c5:9a:b4:6e:38:37:24:
                    9a:6f:04:2b:ba:18:8a:3b:d9:32:67:1b:a7:ef:0c:
                    45:11:d5:f3:3c:70:d3:1d:81:15:09:48:89:a4:a1:
                    f9:e4:37:4e:b1
                ASN1 OID: prime256v1
                NIST CURVE: P-256
        X509v3 extensions:
            X509v3 Basic Constraints: 
                CA:FALSE
            X509v3 Key Usage: 
                Digital Signature, Non Repudiation, Key Encipherment
            Netscape Comment: 
                OpenSSL Generated Certificate
            X509v3 Subject Key Identifier: 
                DB:BA:3E:45:A4:26:C7:44:B6:14:D6:DE:0C:CD:AE:F9:54:4A:B2:F3
            X509v3 Authority Key Identifier: 
                keyid:D1:81:9A:8E:29:49:76:C7:85:DE:6D:E4:BC:FA:38:2D:88:D9:5D:6B

            X509v3 Extended Key Usage: 
                TLS Web Server Authentication, TLS Web Client Authentication
    Signature Algorithm: ecdsa-with-SHA256
         30:45:02:21:00:bd:a3:78:2b:b2:f5:a7:c2:d2:73:68:e2:2c:
         28:71:56:1e:ad:30:61:9d:73:60:b6:e5:f8:7b:20:b0:4e:8f:
         fb:02:20:09:1a:a1:d0:59:49:44:0d:92:5c:1c:b9:bb:7a:4b:
         90:9f:69:8f:f9:6d:2b:2c:85:1f:fe:cd:8e:1b:f8:59:89
-----BEGIN CERTIFICATE-----
MIIByjCCAXCgAwIBAgIBAzAKBggqhkjOPQQDAjAcMRowGAYDVQQDDBFyb290Y2Eu
YWlzaW5vLmNvbTAeFw0yMDA5MTEwOTAxMzVaFw0zMDA5MDkwOTAxMzVaMBYxFDAS
BgNVBAMMC2FnZW50MjEuY29tMFkwEwYHKoZIzj0CAQYIKoZIzj0DAQcDQgAEdWBm
I77aQGDcjYOOAqeWenQ+hOnBBMWatG44NySabwQruhiKO9kyZxun7wxFEdXzPHDT
HYEVCUiJpKH55DdOsaOBqDCBpTAJBgNVHRMEAjAAMAsGA1UdDwQEAwIF4DAsBglg
hkgBhvhCAQ0EHxYdT3BlblNTTCBHZW5lcmF0ZWQgQ2VydGlmaWNhdGUwHQYDVR0O
BBYEFNu6PkWkJsdEthTW3gzNrvlUSrLzMB8GA1UdIwQYMBaAFNGBmo4pSXbHhd5t
5Lz6OC2I2V1rMB0GA1UdJQQWMBQGCCsGAQUFBwMBBggrBgEFBQcDAjAKBggqhkjO
PQQDAgNIADBFAiEAvaN4K7L1p8LSc2jiLChxVh6tMGGdc2C25fh7ILBOj/sCIAka
odBZSUQNklwcubt6S5CfaY/5bSsshR/+zY4b+FmJ
-----END CERTIFICATE-----
