Certificate:
    Data:
        Version: 3 (0x2)
        Serial Number: 1 (0x1)
    Signature Algorithm: ecdsa-with-SHA256
        Issuer: CN=rootca.aisino.com
        Validity
            Not Before: Apr 13 05:41:40 2018 GMT
            Not After : Apr  8 05:41:40 2038 GMT
        Subject: CN=rootca.aisino.com
        Subject Public Key Info:
            Public Key Algorithm: id-ecPublicKey
                Public-Key: (256 bit)
                pub: 
                    04:e3:94:ce:44:8c:ce:45:ea:52:b8:d4:5b:55:40:
                    41:b4:c5:f2:63:c0:67:17:97:ce:c6:2b:79:10:d7:
                    67:b0:b8:38:78:7d:67:6d:95:61:7c:57:05:fe:60:
                    83:01:1a:45:f1:c9:f9:2b:2a:ee:03:1c:20:01:63:
                    f1:13:a1:fc:62
                ASN1 OID: prime256v1
                NIST CURVE: P-256
        X509v3 extensions:
            X509v3 Subject Key Identifier: 
                E2:26:F3:71:FE:BD:01:F1:CB:B7:04:4B:FA:3A:8D:8E:9C:04:4D:8A
            X509v3 Authority Key Identifier: 
                keyid:E2:26:F3:71:FE:BD:01:F1:CB:B7:04:4B:FA:3A:8D:8E:9C:04:4D:8A

            X509v3 Basic Constraints: 
                CA:TRUE
    Signature Algorithm: ecdsa-with-SHA256
         30:45:02:20:41:79:fc:e7:40:1c:e3:7c:40:38:93:fc:bb:9b:
         88:c3:31:03:98:ca:aa:1a:38:94:b7:b4:2b:0f:f3:a2:ff:39:
         02:21:00:ad:0a:86:5c:dd:90:a4:c0:5e:a5:3b:44:a4:4d:27:
         59:3d:59:1f:7d:69:b7:2c:e7:90:b4:12:f9:db:80:85:10
-----BEGIN CERTIFICATE-----
MIIBdzCCAR2gAwIBAgIBATAKBggqhkjOPQQDAjAcMRowGAYDVQQDDBFyb290Y2Eu
YWlzaW5vLmNvbTAeFw0xODA0MTMwNTQxNDBaFw0zODA0MDgwNTQxNDBaMBwxGjAY
BgNVBAMMEXJvb3RjYS5haXNpbm8uY29tMFkwEwYHKoZIzj0CAQYIKoZIzj0DAQcD
QgAE45TORIzORepSuNRbVUBBtMXyY8BnF5fOxit5ENdnsLg4eH1nbZVhfFcF/mCD
ARpF8cn5KyruAxwgAWPxE6H8YqNQME4wHQYDVR0OBBYEFOIm83H+vQHxy7cES/o6
jY6cBE2KMB8GA1UdIwQYMBaAFOIm83H+vQHxy7cES/o6jY6cBE2KMAwGA1UdEwQF
MAMBAf8wCgYIKoZIzj0EAwIDSAAwRQIgQXn850Ac43xAOJP8u5uIwzEDmMqqGjiU
t7QrD/Oi/zkCIQCtCoZc3ZCkwF6lO0SkTSdZPVkffWm3LOeQtBL524CFEA==
-----END CERTIFICATE-----
