Certificate:
    Data:
        Version: 3 (0x2)
        Serial Number: 1 (0x1)
    Signature Algorithm: ecdsa-with-SHA256
        Issuer: CN=rootca.aisino.com
        Validity
            Not Before: Sep 29 01:09:06 2018 GMT
            Not After : Sep 24 01:09:06 2038 GMT
        Subject: CN=rootca.aisino.com
        Subject Public Key Info:
            Public Key Algorithm: id-ecPublicKey
                Public-Key: (256 bit)
                pub: 
                    04:48:5a:18:2d:a4:84:b4:12:03:f6:bf:38:78:93:
                    be:79:30:a1:dd:7c:07:aa:f3:2f:84:e6:8c:15:d3:
                    54:64:81:f0:ee:ca:fa:6d:9e:6e:97:69:2b:0e:cc:
                    f9:50:f5:13:ff:57:09:36:dc:ef:53:11:34:75:4a:
                    fd:36:41:61:54
                ASN1 OID: prime256v1
                NIST CURVE: P-256
        X509v3 extensions:
            X509v3 Subject Key Identifier: 
                35:7A:08:53:FA:68:24:C6:F7:67:FB:CF:D6:A6:E5:96:77:09:9E:79
            X509v3 Authority Key Identifier: 
                keyid:35:7A:08:53:FA:68:24:C6:F7:67:FB:CF:D6:A6:E5:96:77:09:9E:79

            X509v3 Basic Constraints: 
                CA:TRUE
    Signature Algorithm: ecdsa-with-SHA256
         30:46:02:21:00:ca:2f:f4:29:a9:85:86:f7:45:91:f0:87:ae:
         bf:5d:e8:1c:e2:3f:10:55:88:63:5c:0b:52:6c:38:f5:ed:19:
         03:02:21:00:b8:10:b6:c8:32:1b:df:33:77:9a:3a:29:78:30:
         f7:66:01:2b:5c:95:81:6e:59:65:fa:d8:76:ed:d6:be:4e:9f
-----BEGIN CERTIFICATE-----
MIIBeDCCAR2gAwIBAgIBATAKBggqhkjOPQQDAjAcMRowGAYDVQQDDBFyb290Y2Eu
YWlzaW5vLmNvbTAeFw0xODA5MjkwMTA5MDZaFw0zODA5MjQwMTA5MDZaMBwxGjAY
BgNVBAMMEXJvb3RjYS5haXNpbm8uY29tMFkwEwYHKoZIzj0CAQYIKoZIzj0DAQcD
QgAESFoYLaSEtBID9r84eJO+eTCh3XwHqvMvhOaMFdNUZIHw7sr6bZ5ul2krDsz5
UPUT/1cJNtzvUxE0dUr9NkFhVKNQME4wHQYDVR0OBBYEFDV6CFP6aCTG92f7z9am
5ZZ3CZ55MB8GA1UdIwQYMBaAFDV6CFP6aCTG92f7z9am5ZZ3CZ55MAwGA1UdEwQF
MAMBAf8wCgYIKoZIzj0EAwIDSQAwRgIhAMov9CmphYb3RZHwh66/Xegc4j8QVYhj
XAtSbDj17RkDAiEAuBC2yDIb3zN3mjopeDD3ZgErXJWBblll+th27da+Tp8=
-----END CERTIFICATE-----
